; Function Attrs: mustprogress nofree norecurse nosync nounwind memory(argmem: readwrite) uwtable
define hidden void @_ZN2cv11accProd_64fEPKdS1_PdPKhii(ptr noundef readonly captures(none) %0, ptr noundef readonly captures(none) %1, ptr noundef captures(none) %2, ptr noundef readonly %3, i32 noundef %4, i32 noundef %5) local_unnamed_addr #0 {
  %.not.i.i = icmp eq ptr %3, null
  br i1 %.not.i.i, label %7, label %17

7:                                                ; preds = %6
  %8 = mul nsw i32 %5, %4
  %9 = icmp sgt i32 %8, 0
  br i1 %9, label %.lr.ph.preheader.i.i, label %_ZN2cv12cpu_baseline13accProd_simd_EPKdS2_PdPKhii.exit

.lr.ph.preheader.i.i:                             ; preds = %7
  %wide.trip.count67.i.i = zext nneg i32 %8 to i64
  br label %.lr.ph.i.i

.lr.ph.i.i:                                       ; preds = %.lr.ph.i.i, %.lr.ph.preheader.i.i
  %indvars.iv64.i.i = phi i64 [ 0, %.lr.ph.preheader.i.i ], [ %indvars.iv.next65.i.i, %.lr.ph.i.i ]
  %10 = getelementptr inbounds nuw double, ptr %0, i64 %indvars.iv64.i.i
  %11 = load double, ptr %10, align 8, !tbaa !20
  %12 = getelementptr inbounds nuw double, ptr %1, i64 %indvars.iv64.i.i
  %13 = load double, ptr %12, align 8, !tbaa !20
  %14 = getelementptr inbounds nuw double, ptr %2, i64 %indvars.iv64.i.i
  %15 = load double, ptr %14, align 8, !tbaa !20
  %16 = tail call double @llvm.fmuladd.f64(double %11, double %13, double %15)
  store double %16, ptr %14, align 8, !tbaa !20
  %indvars.iv.next65.i.i = add nuw nsw i64 %indvars.iv64.i.i, 1
  %exitcond68.not.i.i = icmp eq i64 %indvars.iv.next65.i.i, %wide.trip.count67.i.i
  br i1 %exitcond68.not.i.i, label %_ZN2cv12cpu_baseline13accProd_simd_EPKdS2_PdPKhii.exit, label %.lr.ph.i.i, !llvm.loop !73

17:                                               ; preds = %6
  %18 = icmp sgt i32 %4, 0
  br i1 %18, label %.lr.ph54.i.i, label %_ZN2cv12cpu_baseline13accProd_simd_EPKdS2_PdPKhii.exit

.lr.ph54.i.i:                                     ; preds = %17
  %19 = icmp sgt i32 %5, 0
  %20 = sext i32 %5 to i64
  br i1 %19, label %.lr.ph54.split.us.preheader.i.i, label %_ZN2cv12cpu_baseline13accProd_simd_EPKdS2_PdPKhii.exit

.lr.ph54.split.us.preheader.i.i:                  ; preds = %.lr.ph54.i.i
  %wide.trip.count62.i.i = zext nneg i32 %4 to i64
  %wide.trip.count.i.i = zext nneg i32 %5 to i64
  br label %.lr.ph54.split.us.i.i

.lr.ph54.split.us.i.i:                            ; preds = %..loopexit47_crit_edge.us.i.i, %.lr.ph54.split.us.preheader.i.i
  %indvars.iv59.i.i = phi i64 [ 0, %.lr.ph54.split.us.preheader.i.i ], [ %indvars.iv.next60.i.i, %..loopexit47_crit_edge.us.i.i ]
  %.04252.us.i.i = phi ptr [ %0, %.lr.ph54.split.us.preheader.i.i ], [ %30, %..loopexit47_crit_edge.us.i.i ]
  %.04351.us.i.i = phi ptr [ %1, %.lr.ph54.split.us.preheader.i.i ], [ %31, %..loopexit47_crit_edge.us.i.i ]
  %.04450.us.i.i = phi ptr [ %2, %.lr.ph54.split.us.preheader.i.i ], [ %32, %..loopexit47_crit_edge.us.i.i ]
  %21 = getelementptr inbounds nuw i8, ptr %3, i64 %indvars.iv59.i.i
  %22 = load i8, ptr %21, align 1, !tbaa !3
  %.not46.us.i.i = icmp eq i8 %22, 0
  br i1 %.not46.us.i.i, label %..loopexit47_crit_edge.us.i.i, label %.preheader.us.i.i

.preheader.us.i.i:                                ; preds = %.lr.ph54.split.us.i.i, %.preheader.us.i.i
  %indvars.iv.i.i = phi i64 [ %indvars.iv.next.i.i, %.preheader.us.i.i ], [ 0, %.lr.ph54.split.us.i.i ]
  %23 = getelementptr inbounds nuw double, ptr %.04252.us.i.i, i64 %indvars.iv.i.i
  %24 = load double, ptr %23, align 8, !tbaa !20
  %25 = getelementptr inbounds nuw double, ptr %.04351.us.i.i, i64 %indvars.iv.i.i
  %26 = load double, ptr %25, align 8, !tbaa !20
  %27 = getelementptr inbounds nuw double, ptr %.04450.us.i.i, i64 %indvars.iv.i.i
  %28 = load double, ptr %27, align 8, !tbaa !20
  %29 = tail call double @llvm.fmuladd.f64(double %24, double %26, double %28)
  store double %29, ptr %27, align 8, !tbaa !20
  %indvars.iv.next.i.i = add nuw nsw i64 %indvars.iv.i.i, 1
  %exitcond.not.i.i = icmp eq i64 %indvars.iv.next.i.i, %wide.trip.count.i.i
  br i1 %exitcond.not.i.i, label %..loopexit47_crit_edge.us.i.i, label %.preheader.us.i.i, !llvm.loop !74

..loopexit47_crit_edge.us.i.i:                    ; preds = %.preheader.us.i.i, %.lr.ph54.split.us.i.i
  %indvars.iv.next60.i.i = add nuw nsw i64 %indvars.iv59.i.i, 1
  %30 = getelementptr inbounds nuw double, ptr %.04252.us.i.i, i64 %20
  %31 = getelementptr inbounds nuw double, ptr %.04351.us.i.i, i64 %20
  %32 = getelementptr inbounds nuw double, ptr %.04450.us.i.i, i64 %20
  %exitcond63.not.i.i = icmp eq i64 %indvars.iv.next60.i.i, %wide.trip.count62.i.i
  br i1 %exitcond63.not.i.i, label %_ZN2cv12cpu_baseline13accProd_simd_EPKdS2_PdPKhii.exit, label %.lr.ph54.split.us.i.i, !llvm.loop !75

_ZN2cv12cpu_baseline13accProd_simd_EPKdS2_PdPKhii.exit: ; preds = %..loopexit47_crit_edge.us.i.i, %.lr.ph.i.i, %7, %17, %.lr.ph54.i.i
  ret void
}